; Function Attrs: nounwind uwtable
define ptr @l___private_Lean_Compiler_LCNF_PhaseExt_0__Lean_Compiler_LCNF_sortDecls(ptr noundef %0) local_unnamed_addr #1 {
lean_nat_eq.exit:
  %1 = getelementptr i8, ptr %0, i64 8
  %.val = load i64, ptr %1, align 8, !tbaa !14
  %2 = shl i64 %.val, 1
  %.not = icmp eq i64 %2, 0
  br i1 %.not, label %lean_dec.exit30, label %lean_nat_le.exit

lean_nat_le.exit:                                 ; preds = %lean_nat_eq.exit
  %3 = and i64 %.val, 9223372036854775807
  %4 = icmp eq i64 %3, 0
  %5 = add i64 %2, -1
  %6 = inttoptr i64 %5 to ptr
  %.1.i = select i1 %4, ptr inttoptr (i64 1 to ptr), ptr %6
  %7 = or disjoint i64 %2, 1
  %8 = inttoptr i64 %7 to ptr
  %9 = tail call ptr @l_Array_qsort_sort___at___private_Lean_Compiler_LCNF_PhaseExt_0__Lean_Compiler_LCNF_sortDecls___spec__1(ptr noundef nonnull %8, ptr noundef nonnull %0, ptr noundef nonnull inttoptr (i64 1 to ptr), ptr noundef nonnull %.1.i, ptr nonnull poison, ptr nonnull poison)
  br label %lean_dec.exit30

lean_dec.exit30:                                  ; preds = %lean_nat_eq.exit, %lean_nat_le.exit
  %.1 = phi ptr [ %9, %lean_nat_le.exit ], [ %0, %lean_nat_eq.exit ]
  ret ptr %.1
}